; Function Attrs: mustprogress nofree norecurse nosync nounwind memory(read, argmem: readwrite, inaccessiblemem: none) uwtable
define void @ggml_opt_result_pred(ptr noundef readonly captures(none) %0, ptr noundef writeonly captures(none) %1) local_unnamed_addr #14 {
  %3 = getelementptr inbounds nuw i8, ptr %0, i64 32
  %4 = getelementptr inbounds nuw i8, ptr %0, i64 40
  %5 = load ptr, ptr %4, align 8, !tbaa !123
  %6 = load ptr, ptr %3, align 8, !tbaa !117
  %.not = icmp eq ptr %5, %6
  br i1 %.not, label %._crit_edge, label %.lr.ph.preheader

.lr.ph.preheader:                                 ; preds = %2
  %7 = ptrtoint ptr %5 to i64
  %8 = ptrtoint ptr %6 to i64
  %9 = sub i64 %7, %8
  %10 = ashr exact i64 %9, 2
  %umax = tail call i64 @llvm.umax.i64(i64 %10, i64 1)
  br label %.lr.ph

._crit_edge:                                      ; preds = %.lr.ph, %2
  ret void

.lr.ph:                                           ; preds = %.lr.ph.preheader, %.lr.ph
  %.06 = phi i64 [ %14, %.lr.ph ], [ 0, %.lr.ph.preheader ]
  %11 = getelementptr inbounds nuw i32, ptr %6, i64 %.06
  %12 = load i32, ptr %11, align 4, !tbaa !130
  %13 = getelementptr inbounds nuw i32, ptr %1, i64 %.06
  store i32 %12, ptr %13, align 4, !tbaa !130
  %14 = add nuw i64 %.06, 1
  %exitcond.not = icmp eq i64 %14, %umax
  br i1 %exitcond.not, label %._crit_edge, label %.lr.ph, !llvm.loop !131
}